; ModuleID = '51/53.c'
source_filename = "51/53.c"
target datalayout = "e-m:e-p270:32:32-p271:32:32-p272:64:64-i64:64-f80:128-n8:16:32:64-S128"
target triple = "x86_64-pc-linux-gnu"

@.str = private unnamed_addr constant [3 x i8] c"%d\00", align 1
@.str.1 = private unnamed_addr constant [3 x i8] c"%s\00", align 1
@.str.2 = private unnamed_addr constant [4 x i8] c"NO\0A\00", align 1
@.str.3 = private unnamed_addr constant [4 x i8] c"%d\0A\00", align 1
@.str.4 = private unnamed_addr constant [3 x i8] c"%c\00", align 1
@.str.5 = private unnamed_addr constant [2 x i8] c"\0A\00", align 1

; Function Attrs: noinline nounwind uwtable
define dso_local i32 @main() #0 {
  %1 = alloca i32, align 4
  %2 = alloca i32, align 4
  %3 = alloca i32, align 4
  %4 = alloca i32, align 4
  %5 = alloca [100 x i8], align 16
  %6 = alloca i32, align 4
  %7 = alloca i32, align 4
  store i32 0, i32* %1, align 4
  %8 = call i32 (i8*, ...) @__isoc99_scanf(i8* getelementptr inbounds ([3 x i8], [3 x i8]* @.str, i64 0, i64 0), i32* %2)
  %9 = getelementptr inbounds [100 x i8], [100 x i8]* %5, i64 0, i64 0
  %10 = call i32 (i8*, ...) @__isoc99_scanf(i8* getelementptr inbounds ([3 x i8], [3 x i8]* @.str.1, i64 0, i64 0), i8* %9)
  store i32 0, i32* %3, align 4
  store i32 0, i32* %6, align 4
  br label %11

11:                                               ; preds = %57, %0
  %12 = load i32, i32* %3, align 4
  %13 = load i32, i32* %2, align 4
  %14 = add nsw i32 %12, %13
  %15 = sub nsw i32 %14, 1
  %16 = sext i32 %15 to i64
  %17 = getelementptr inbounds [100 x i8], [100 x i8]* %5, i64 0, i64 %16
  %18 = load i8, i8* %17, align 1
  %19 = sext i8 %18 to i32
  %20 = icmp ne i32 %19, 0
  br i1 %20, label %21, label %60

21:                                               ; preds = %11
  %22 = load i32, i32* %3, align 4
  store i32 %22, i32* %4, align 4
  store i32 0, i32* %7, align 4
  br label %23

23:                                               ; preds = %47, %21
  %24 = load i32, i32* %4, align 4
  %25 = load i32, i32* %2, align 4
  %26 = add nsw i32 %24, %25
  %27 = sub nsw i32 %26, 1
  %28 = sext i32 %27 to i64
  %29 = getelementptr inbounds [100 x i8], [100 x i8]* %5, i64 0, i64 %28
  %30 = load i8, i8* %29, align 1
  %31 = sext i8 %30 to i32
  %32 = icmp ne i32 %31, 0
  br i1 %32, label %33, label %50

33:                                               ; preds = %23
  %34 = load i32, i32* %3, align 4
  %35 = sext i32 %34 to i64
  %36 = getelementptr inbounds [100 x i8], [100 x i8]* %5, i64 0, i64 %35
  %37 = load i32, i32* %4, align 4
  %38 = sext i32 %37 to i64
  %39 = getelementptr inbounds [100 x i8], [100 x i8]* %5, i64 0, i64 %38
  %40 = load i32, i32* %2, align 4
  %41 = call i32 @cmp(i8* %36, i8* %39, i32 %40)
  %42 = icmp eq i32 %41, 1
  br i1 %42, label %43, label %46

43:                                               ; preds = %33
  %44 = load i32, i32* %7, align 4
  %45 = add nsw i32 %44, 1
  store i32 %45, i32* %7, align 4
  br label %46

46:                                               ; preds = %43, %33
  br label %47

47:                                               ; preds = %46
  %48 = load i32, i32* %4, align 4
  %49 = add nsw i32 %48, 1
  store i32 %49, i32* %4, align 4
  br label %23

50:                                               ; preds = %23
  %51 = load i32, i32* %7, align 4
  %52 = load i32, i32* %6, align 4
  %53 = icmp sgt i32 %51, %52
  br i1 %53, label %54, label %56

54:                                               ; preds = %50
  %55 = load i32, i32* %7, align 4
  store i32 %55, i32* %6, align 4
  br label %56

56:                                               ; preds = %54, %50
  br label %57

57:                                               ; preds = %56
  %58 = load i32, i32* %3, align 4
  %59 = add nsw i32 %58, 1
  store i32 %59, i32* %3, align 4
  br label %11

60:                                               ; preds = %11
  %61 = load i32, i32* %6, align 4
  %62 = icmp eq i32 %61, 1
  br i1 %62, label %63, label %65

63:                                               ; preds = %60
  %64 = call i32 (i8*, ...) @printf(i8* getelementptr inbounds ([4 x i8], [4 x i8]* @.str.2, i64 0, i64 0))
  br label %135

65:                                               ; preds = %60
  %66 = load i32, i32* %6, align 4
  %67 = call i32 (i8*, ...) @printf(i8* getelementptr inbounds ([4 x i8], [4 x i8]* @.str.3, i64 0, i64 0), i32 %66)
  store i32 0, i32* %3, align 4
  br label %68

68:                                               ; preds = %131, %65
  %69 = load i32, i32* %3, align 4
  %70 = load i32, i32* %2, align 4
  %71 = add nsw i32 %69, %70
  %72 = sub nsw i32 %71, 1
  %73 = sext i32 %72 to i64
  %74 = getelementptr inbounds [100 x i8], [100 x i8]* %5, i64 0, i64 %73
  %75 = load i8, i8* %74, align 1
  %76 = sext i8 %75 to i32
  %77 = icmp ne i32 %76, 0
  br i1 %77, label %78, label %134

78:                                               ; preds = %68
  %79 = load i32, i32* %3, align 4
  store i32 %79, i32* %4, align 4
  store i32 0, i32* %7, align 4
  br label %80

80:                                               ; preds = %104, %78
  %81 = load i32, i32* %4, align 4
  %82 = load i32, i32* %2, align 4
  %83 = add nsw i32 %81, %82
  %84 = sub nsw i32 %83, 1
  %85 = sext i32 %84 to i64
  %86 = getelementptr inbounds [100 x i8], [100 x i8]* %5, i64 0, i64 %85
  %87 = load i8, i8* %86, align 1
  %88 = sext i8 %87 to i32
  %89 = icmp ne i32 %88, 0
  br i1 %89, label %90, label %107

90:                                               ; preds = %80
  %91 = load i32, i32* %3, align 4
  %92 = sext i32 %91 to i64
  %93 = getelementptr inbounds [100 x i8], [100 x i8]* %5, i64 0, i64 %92
  %94 = load i32, i32* %4, align 4
  %95 = sext i32 %94 to i64
  %96 = getelementptr inbounds [100 x i8], [100 x i8]* %5, i64 0, i64 %95
  %97 = load i32, i32* %2, align 4
  %98 = call i32 @cmp(i8* %93, i8* %96, i32 %97)
  %99 = icmp eq i32 %98, 1
  br i1 %99, label %100, label %103

100:                                              ; preds = %90
  %101 = load i32, i32* %7, align 4
  %102 = add nsw i32 %101, 1
  store i32 %102, i32* %7, align 4
  br label %103

103:                                              ; preds = %100, %90
  br label %104

104:                                              ; preds = %103
  %105 = load i32, i32* %4, align 4
  %106 = add nsw i32 %105, 1
  store i32 %106, i32* %4, align 4
  br label %80

107:                                              ; preds = %80
  %108 = load i32, i32* %7, align 4
  %109 = load i32, i32* %6, align 4
  %110 = icmp eq i32 %108, %109
  br i1 %110, label %111, label %130

111:                                              ; preds = %107
  store i32 0, i32* %4, align 4
  br label %112

112:                                              ; preds = %125, %111
  %113 = load i32, i32* %4, align 4
  %114 = load i32, i32* %2, align 4
  %115 = icmp slt i32 %113, %114
  br i1 %115, label %116, label %128

116:                                              ; preds = %112
  %117 = load i32, i32* %3, align 4
  %118 = load i32, i32* %4, align 4
  %119 = add nsw i32 %117, %118
  %120 = sext i32 %119 to i64
  %121 = getelementptr inbounds [100 x i8], [100 x i8]* %5, i64 0, i64 %120
  %122 = load i8, i8* %121, align 1
  %123 = sext i8 %122 to i32
  %124 = call i32 (i8*, ...) @printf(i8* getelementptr inbounds ([3 x i8], [3 x i8]* @.str.4, i64 0, i64 0), i32 %123)
  br label %125

125:                                              ; preds = %116
  %126 = load i32, i32* %4, align 4
  %127 = add nsw i32 %126, 1
  store i32 %127, i32* %4, align 4
  br label %112

128:                                              ; preds = %112
  %129 = call i32 (i8*, ...) @printf(i8* getelementptr inbounds ([2 x i8], [2 x i8]* @.str.5, i64 0, i64 0))
  br label %130

130:                                              ; preds = %128, %107
  br label %131

131:                                              ; preds = %130
  %132 = load i32, i32* %3, align 4
  %133 = add nsw i32 %132, 1
  store i32 %133, i32* %3, align 4
  br label %68

134:                                              ; preds = %68
  br label %135

135:                                              ; preds = %134, %63
  ret i32 0
}

declare dso_local i32 @__isoc99_scanf(i8*, ...) #1

; Function Attrs: noinline nounwind uwtable
define dso_local i32 @cmp(i8* %0, i8* %1, i32 %2) #0 {
  %4 = alloca i32, align 4
  %5 = alloca i8*, align 8
  %6 = alloca i8*, align 8
  %7 = alloca i32, align 4
  %8 = alloca i32, align 4
  store i8* %0, i8** %5, align 8
  store i8* %1, i8** %6, align 8
  store i32 %2, i32* %7, align 4
  store i32 0, i32* %8, align 4
  br label %9

9:                                                ; preds = %29, %3
  %10 = load i32, i32* %8, align 4
  %11 = load i32, i32* %7, align 4
  %12 = icmp slt i32 %10, %11
  br i1 %12, label %13, label %32

13:                                               ; preds = %9
  %14 = load i8*, i8** %5, align 8
  %15 = load i32, i32* %8, align 4
  %16 = sext i32 %15 to i64
  %17 = getelementptr inbounds i8, i8* %14, i64 %16
  %18 = load i8, i8* %17, align 1
  %19 = sext i8 %18 to i32
  %20 = load i8*, i8** %6, align 8
  %21 = load i32, i32* %8, align 4
  %22 = sext i32 %21 to i64
  %23 = getelementptr inbounds i8, i8* %20, i64 %22
  %24 = load i8, i8* %23, align 1
  %25 = sext i8 %24 to i32
  %26 = icmp ne i32 %19, %25
  br i1 %26, label %27, label %28

27:                                               ; preds = %13
  store i32 0, i32* %4, align 4
  br label %37

28:                                               ; preds = %13
  br label %29

29:                                               ; preds = %28
  %30 = load i32, i32* %8, align 4
  %31 = add nsw i32 %30, 1
  store i32 %31, i32* %8, align 4
  br label %9

32:                                               ; preds = %9
  %33 = load i32, i32* %8, align 4
  %34 = load i32, i32* %7, align 4
  %35 = icmp eq i32 %33, %34
  br i1 %35, label %36, label %37

36:                                               ; preds = %32
  store i32 1, i32* %4, align 4
  br label %37

37:                                               ; preds = %27, %36, %32
  %38 = load i32, i32* %4, align 4
  ret i32 %38
}

declare dso_local i32 @printf(i8*, ...) #1


!llvm.module.flags = !{!0}
!llvm.ident = !{!1}

!0 = !{i32 1, !"wchar_size", i32 4}
!1 = !{!"clang version 10.0.0-4ubuntu1 "}
